target datalayout = "e-m:e-p270:32:32-p271:32:32-p272:64:64-i64:64-i128:128-f80:128-n8:16:32:64-S128"
target triple = "x86_64-unknown-linux-gnu"

%"class.proxygen::StructuredHeadersBuffer" = type { %"class.folly::Range", %"class.folly::Range" }
%"class.folly::Range" = type { ptr, ptr }

@.str.28 = private unnamed_addr constant [19 x i8] c"index out of range\00", align 1

; Function Attrs: mustprogress nounwind uwtable
define linkonce_odr noundef i64 @_ZNK5folly5RangeIPKcE4sizeEv(ptr noundef nonnull align 8 dereferenceable(16) %this) #2 comdat align 2 {
entry:
  %this.addr = alloca ptr, align 8
  store ptr %this, ptr %this.addr, align 8
  %this1 = load ptr, ptr %this.addr, align 8
  %e_ = getelementptr inbounds %"class.folly::Range", ptr %this1, i32 0, i32 1
  %0 = load ptr, ptr %e_, align 8
  %b_ = getelementptr inbounds %"class.folly::Range", ptr %this1, i32 0, i32 0
  %1 = load ptr, ptr %b_, align 8
  %sub.ptr.lhs.cast = ptrtoint ptr %0 to i64
  %sub.ptr.rhs.cast = ptrtoint ptr %1 to i64
  %sub.ptr.sub = sub i64 %sub.ptr.lhs.cast, %sub.ptr.rhs.cast
  ret i64 %sub.ptr.sub
}

; Function Attrs: mustprogress uwtable
define linkonce_odr void @_ZN5folly5RangeIPKcE7advanceEm(ptr noundef nonnull align 8 dereferenceable(16) %this, i64 noundef %n) #1 comdat align 2 {
entry:
  %args.addr.i = alloca ptr, align 8
  %this.addr = alloca ptr, align 8
  %n.addr = alloca i64, align 8
  store ptr %this, ptr %this.addr, align 8
  store i64 %n, ptr %n.addr, align 8
  %this1 = load ptr, ptr %this.addr, align 8
  %0 = load i64, ptr %n.addr, align 8
  %call = call noundef i64 @_ZNK5folly5RangeIPKcE4sizeEv(ptr noundef nonnull align 8 dereferenceable(16) %this1)
  %cmp = icmp ugt i64 %0, %call
  br i1 %cmp, label %if.then, label %if.end

if.then:                                          ; preds = %entry
  store ptr @.str.28, ptr %args.addr.i, align 8
  %1 = load ptr, ptr %args.addr.i, align 8
  call void @_ZN5folly6detail16throw_exception_ISt12out_of_rangeJPKcEEEvDpT0_(ptr noundef %1) #24
  unreachable

_ZN5folly15throw_exceptionISt12out_of_rangeJRA19_KcEEEvDpOT0_.exit: ; No predecessors!
  unreachable

if.end:                                           ; preds = %entry
  %2 = load i64, ptr %n.addr, align 8
  %b_ = getelementptr inbounds %"class.folly::Range", ptr %this1, i32 0, i32 0
  %3 = load ptr, ptr %b_, align 8
  %add.ptr = getelementptr inbounds i8, ptr %3, i64 %2
  store ptr %add.ptr, ptr %b_, align 8
  ret void
}

; Function Attrs: mustprogress nounwind uwtable
define linkonce_odr noundef ptr @_ZNK5folly5RangeIPKcE3endEv(ptr noundef nonnull align 8 dereferenceable(16) %this) #2 comdat align 2 {
entry:
  %this.addr = alloca ptr, align 8
  store ptr %this, ptr %this.addr, align 8
  %this1 = load ptr, ptr %this.addr, align 8
  %e_ = getelementptr inbounds %"class.folly::Range", ptr %this1, i32 0, i32 1
  %0 = load ptr, ptr %e_, align 8
  ret ptr %0
}

; Function Attrs: mustprogress nounwind uwtable
define linkonce_odr noundef ptr @_ZNK5folly5RangeIPKcE5beginEv(ptr noundef nonnull align 8 dereferenceable(16) %this) #2 comdat align 2 {
entry:
  %this.addr = alloca ptr, align 8
  store ptr %this, ptr %this.addr, align 8
  %this1 = load ptr, ptr %this.addr, align 8
  %b_ = getelementptr inbounds %"class.folly::Range", ptr %this1, i32 0, i32 0
  %0 = load ptr, ptr %b_, align 8
  ret ptr %0
}

; Function Attrs: mustprogress uwtable
define void @_ZN8proxygen23StructuredHeadersBuffer13advanceCursorEv(ptr noundef nonnull align 8 dereferenceable(32) %this) #1 align 2 {
entry:
  %this.addr = alloca ptr, align 8
  store ptr %this, ptr %this.addr, align 8
  %this1 = load ptr, ptr %this.addr, align 8
  %content_ = getelementptr inbounds %"class.proxygen::StructuredHeadersBuffer", ptr %this1, i32 0, i32 0
  call void @_ZN5folly5RangeIPKcE7advanceEm(ptr noundef nonnull align 8 dereferenceable(16) %content_, i64 noundef 1)
  ret void
}

; Function Attrs: mustprogress uwtable
define noundef signext i8 @_ZN8proxygen23StructuredHeadersBuffer4peekEv(ptr noundef nonnull align 8 dereferenceable(32) %this) #1 align 2 {
entry:
  %this.addr = alloca ptr, align 8
  store ptr %this, ptr %this.addr, align 8
  %this1 = load ptr, ptr %this.addr, align 8
  %content_ = getelementptr inbounds %"class.proxygen::StructuredHeadersBuffer", ptr %this1, i32 0, i32 0
  %call = call noundef ptr @_ZNK5folly5RangeIPKcE5beginEv(ptr noundef nonnull align 8 dereferenceable(16) %content_)
  %0 = load i8, ptr %call, align 1
  ret i8 %0
}

; Function Attrs: mustprogress uwtable
define noundef zeroext i1 @_ZN8proxygen23StructuredHeadersBuffer7isEmptyEv(ptr noundef nonnull align 8 dereferenceable(32) %this) #1 align 2 {
entry:
  %this.addr = alloca ptr, align 8
  store ptr %this, ptr %this.addr, align 8
  %this1 = load ptr, ptr %this.addr, align 8
  %content_ = getelementptr inbounds %"class.proxygen::StructuredHeadersBuffer", ptr %this1, i32 0, i32 0
  %call = call noundef ptr @_ZNK5folly5RangeIPKcE5beginEv(ptr noundef nonnull align 8 dereferenceable(16) %content_)
  %content_2 = getelementptr inbounds %"class.proxygen::StructuredHeadersBuffer", ptr %this1, i32 0, i32 0
  %call3 = call noundef ptr @_ZNK5folly5RangeIPKcE3endEv(ptr noundef nonnull align 8 dereferenceable(16) %content_2)
  %cmp = icmp eq ptr %call, %call3
  ret i1 %cmp
}

; Function Attrs: mustprogress uwtable
define noundef zeroext i8 @_ZN8proxygen23StructuredHeadersBuffer15parseIdentifierERNSt7__cxx1112basic_stringIcSt11char_traitsIcESaIcEEE(ptr noundef nonnull align 8 dereferenceable(32) %this, ptr noundef nonnull align 8 dereferenceable(32) %result) #1 align 2 {
entry:
  %retval = alloca i8, align 1
  %this.addr = alloca ptr, align 8
  %result.addr = alloca ptr, align 8
  %ref.tmp = alloca i8, align 1
  %ref.tmp6 = alloca i8, align 1
  %current = alloca i8, align 1
  store ptr %this, ptr %this.addr, align 8
  store ptr %result, ptr %result.addr, align 8
  %this1 = load ptr, ptr %this.addr, align 8
  %call = call noundef zeroext i1 @_ZN8proxygen23StructuredHeadersBuffer7isEmptyEv(ptr noundef nonnull align 8 dereferenceable(32) %this1)
  br i1 %call, label %if.then, label %if.end

if.then:                                          ; preds = %entry
  store i8 4, ptr %ref.tmp, align 1
  %call2 = call noundef zeroext i8 @_ZN8proxygen23StructuredHeadersBuffer17handleDecodeErrorERKNS_17StructuredHeaders11DecodeErrorE(ptr noundef nonnull align 8 dereferenceable(32) %this1, ptr noundef nonnull align 1 dereferenceable(1) %ref.tmp)
  store i8 %call2, ptr %retval, align 1
  br label %return

if.end:                                           ; preds = %entry
  %call3 = call noundef signext i8 @_ZN8proxygen23StructuredHeadersBuffer4peekEv(ptr noundef nonnull align 8 dereferenceable(32) %this1)
  %call4 = call noundef zeroext i1 @_ZN8proxygen17StructuredHeaders9isLcAlphaEc(i8 noundef signext %call3)
  br i1 %call4, label %if.end8, label %if.then5

if.then5:                                         ; preds = %if.end
  store i8 2, ptr %ref.tmp6, align 1
  %call7 = call noundef zeroext i8 @_ZN8proxygen23StructuredHeadersBuffer17handleDecodeErrorERKNS_17StructuredHeaders11DecodeErrorE(ptr noundef nonnull align 8 dereferenceable(32) %this1, ptr noundef nonnull align 1 dereferenceable(1) %ref.tmp6)
  store i8 %call7, ptr %retval, align 1
  br label %return

if.end8:                                          ; preds = %if.end
  br label %while.cond

while.cond:                                       ; preds = %if.end13, %if.end8
  %call9 = call noundef zeroext i1 @_ZN8proxygen23StructuredHeadersBuffer7isEmptyEv(ptr noundef nonnull align 8 dereferenceable(32) %this1)
  %lnot = xor i1 %call9, true
  br i1 %lnot, label %while.body, label %while.end

while.body:                                       ; preds = %while.cond
  %call10 = call noundef signext i8 @_ZN8proxygen23StructuredHeadersBuffer4peekEv(ptr noundef nonnull align 8 dereferenceable(32) %this1)
  store i8 %call10, ptr %current, align 1
  %0 = load i8, ptr %current, align 1
  %call11 = call noundef zeroext i1 @_ZN8proxygen17StructuredHeaders21isValidIdentifierCharEc(i8 noundef signext %0)
  br i1 %call11, label %if.else, label %if.then12

if.then12:                                        ; preds = %while.body
  br label %while.end

if.else:                                          ; preds = %while.body
  call void @_ZN8proxygen23StructuredHeadersBuffer13advanceCursorEv(ptr noundef nonnull align 8 dereferenceable(32) %this1)
  %1 = load ptr, ptr %result.addr, align 8
  %2 = load i8, ptr %current, align 1
  call void @_ZNSt7__cxx1112basic_stringIcSt11char_traitsIcESaIcEE9push_backEc(ptr noundef nonnull align 8 dereferenceable(32) %1, i8 noundef signext %2)
  br label %if.end13

if.end13:                                         ; preds = %if.else
  br label %while.cond, !llvm.loop !9

while.end:                                        ; preds = %if.then12, %while.cond
  store i8 0, ptr %retval, align 1
  br label %return

return:                                           ; preds = %while.end, %if.then5, %if.then
  %3 = load i8, ptr %retval, align 1
  ret i8 %3
}