; Function Attrs: mustprogress uwtable
define noundef zeroext i8 @_ZN8proxygen23StructuredHeadersBuffer15parseIdentifierERNSt7__cxx1112basic_stringIcSt11char_traitsIcESaIcEEE(ptr nocapture noundef nonnull align 8 dereferenceable(32) %this, ptr noundef nonnull align 8 dereferenceable(32) %result) local_unnamed_addr #0 align 2 {
entry:
  %ref.tmp = alloca i8, align 1
  %ref.tmp6 = alloca i8, align 1
  %0 = load ptr, ptr %this, align 8
  %e_.i.i = getelementptr inbounds i8, ptr %this, i64 8
  %1 = load ptr, ptr %e_.i.i, align 8
  %cmp.i = icmp eq ptr %0, %1
  br i1 %cmp.i, label %if.then, label %if.end

if.then:                                          ; preds = %entry
  store i8 4, ptr %ref.tmp, align 1
  br label %return.sink.split

if.end:                                           ; preds = %entry
  %2 = load i8, ptr %0, align 1
  %call4 = tail call noundef zeroext i1 @_ZN8proxygen17StructuredHeaders9isLcAlphaEc(i8 noundef signext %2)
  br i1 %call4, label %while.cond.preheader, label %if.then5

while.cond.preheader:                             ; preds = %if.end
  %3 = load ptr, ptr %this, align 8
  %4 = load ptr, ptr %e_.i.i, align 8
  %cmp.i34 = icmp eq ptr %3, %4
  br i1 %cmp.i34, label %return, label %while.body

if.then5:                                         ; preds = %if.end
  store i8 2, ptr %ref.tmp6, align 1
  br label %return.sink.split

while.body:                                       ; preds = %while.cond.preheader, %_ZN8proxygen23StructuredHeadersBuffer13advanceCursorEv.exit
  %5 = phi ptr [ %9, %_ZN8proxygen23StructuredHeadersBuffer13advanceCursorEv.exit ], [ %3, %while.cond.preheader ]
  %6 = load i8, ptr %5, align 1
  %call11 = tail call noundef zeroext i1 @_ZN8proxygen17StructuredHeaders21isValidIdentifierCharEc(i8 noundef signext %6)
  br i1 %call11, label %if.else, label %return

if.else:                                          ; preds = %while.body
  %7 = load ptr, ptr %e_.i.i, align 8
  %8 = load ptr, ptr %this, align 8
  %cmp.i.i = icmp eq ptr %7, %8
  br i1 %cmp.i.i, label %if.then.i.i, label %_ZN8proxygen23StructuredHeadersBuffer13advanceCursorEv.exit

if.then.i.i:                                      ; preds = %if.else
  tail call void @_ZN5folly6detail16throw_exception_ISt12out_of_rangeJPKcEEEvDpT0_(ptr noundef nonnull @.str.28) #31
  unreachable

_ZN8proxygen23StructuredHeadersBuffer13advanceCursorEv.exit: ; preds = %if.else
  %add.ptr.i.i = getelementptr inbounds i8, ptr %8, i64 1
  store ptr %add.ptr.i.i, ptr %this, align 8
  tail call void @_ZNSt7__cxx1112basic_stringIcSt11char_traitsIcESaIcEE9push_backEc(ptr noundef nonnull align 8 dereferenceable(32) %result, i8 noundef signext %6)
  %9 = load ptr, ptr %this, align 8
  %10 = load ptr, ptr %e_.i.i, align 8
  %cmp.i3 = icmp eq ptr %9, %10
  br i1 %cmp.i3, label %return, label %while.body, !llvm.loop !36

return.sink.split:                                ; preds = %if.then, %if.then5
  %ref.tmp6.sink = phi ptr [ %ref.tmp6, %if.then5 ], [ %ref.tmp, %if.then ]
  %call7 = call noundef zeroext i8 @_ZN8proxygen23StructuredHeadersBuffer17handleDecodeErrorERKNS_17StructuredHeaders11DecodeErrorE(ptr noundef nonnull align 8 dereferenceable(32) %this, ptr noundef nonnull align 1 dereferenceable(1) %ref.tmp6.sink)
  br label %return

return:                                           ; preds = %while.body, %_ZN8proxygen23StructuredHeadersBuffer13advanceCursorEv.exit, %return.sink.split, %while.cond.preheader
  %retval.0 = phi i8 [ 0, %while.cond.preheader ], [ %call7, %return.sink.split ], [ 0, %_ZN8proxygen23StructuredHeadersBuffer13advanceCursorEv.exit ], [ 0, %while.body ]
  ret i8 %retval.0
}